target datalayout = "e-m:e-p270:32:32-p271:32:32-p272:64:64-i64:64-i128:128-f80:128-n8:16:32:64-S128"
target triple = "x86_64-pc-linux-gnu"

%struct.CONF_VALUE = type { ptr, ptr, ptr }

@.str.1 = private unnamed_addr constant [31 x i8] c"../openssl/crypto/ts/ts_conf.c\00", align 1
@.str.15 = private unnamed_addr constant [8 x i8] c"digests\00", align 1
@__func__.ts_CONF_lookup_fail = private unnamed_addr constant [20 x i8] c"ts_CONF_lookup_fail\00", align 1
@.str.26 = private unnamed_addr constant [7 x i8] c"%s::%s\00", align 1
@__func__.ts_CONF_invalid = private unnamed_addr constant [16 x i8] c"ts_CONF_invalid\00", align 1

; Function Attrs: inlinehint nounwind uwtable
define internal ptr @ossl_check_CONF_VALUE_freefunc_type(ptr noundef %0) #3 {
  %2 = alloca ptr, align 8
  store ptr %0, ptr %2, align 8, !tbaa !28
  %3 = load ptr, ptr %2, align 8, !tbaa !28
  ret ptr %3
}

; Function Attrs: inlinehint nounwind uwtable
define internal ptr @ossl_check_CONF_VALUE_sk_type(ptr noundef %0) #3 {
  %2 = alloca ptr, align 8
  store ptr %0, ptr %2, align 8, !tbaa !41
  %3 = load ptr, ptr %2, align 8, !tbaa !41
  ret ptr %3
}

; Function Attrs: inlinehint nounwind uwtable
define internal ptr @ossl_check_const_CONF_VALUE_sk_type(ptr noundef %0) #3 {
  %2 = alloca ptr, align 8
  store ptr %0, ptr %2, align 8, !tbaa !41
  %3 = load ptr, ptr %2, align 8, !tbaa !41
  ret ptr %3
}

; Function Attrs: nounwind uwtable
define internal void @ts_CONF_invalid(ptr noundef %0, ptr noundef %1) #0 {
  %3 = alloca ptr, align 8
  %4 = alloca ptr, align 8
  store ptr %0, ptr %3, align 8, !tbaa !3
  store ptr %1, ptr %4, align 8, !tbaa !3
  call void @ERR_new()
  call void @ERR_set_debug(ptr noundef @.str.1, i32 noundef 132, ptr noundef @__func__.ts_CONF_invalid)
  %5 = load ptr, ptr %3, align 8, !tbaa !3
  %6 = load ptr, ptr %4, align 8, !tbaa !3
  call void (i32, i32, ptr, ...) @ERR_set_error(i32 noundef 47, i32 noundef 135, ptr noundef @.str.26, ptr noundef %5, ptr noundef %6)
  ret void
}

; Function Attrs: nounwind uwtable
define internal void @ts_CONF_lookup_fail(ptr noundef %0, ptr noundef %1) #0 {
  %3 = alloca ptr, align 8
  %4 = alloca ptr, align 8
  store ptr %0, ptr %3, align 8, !tbaa !3
  store ptr %1, ptr %4, align 8, !tbaa !3
  call void @ERR_new()
  call void @ERR_set_debug(ptr noundef @.str.1, i32 noundef 127, ptr noundef @__func__.ts_CONF_lookup_fail)
  %5 = load ptr, ptr %3, align 8, !tbaa !3
  %6 = load ptr, ptr %4, align 8, !tbaa !3
  call void (i32, i32, ptr, ...) @ERR_set_error(i32 noundef 47, i32 noundef 136, ptr noundef @.str.26, ptr noundef %5, ptr noundef %6)
  ret void
}

; Function Attrs: nounwind uwtable
define i32 @TS_CONF_set_digests(ptr noundef %0, ptr noundef %1, ptr noundef %2) #0 {
  %4 = alloca i32, align 4
  %5 = alloca ptr, align 8
  %6 = alloca ptr, align 8
  %7 = alloca ptr, align 8
  %8 = alloca i32, align 4
  %9 = alloca i32, align 4
  %10 = alloca ptr, align 8
  %11 = alloca ptr, align 8
  %12 = alloca ptr, align 8
  %13 = alloca ptr, align 8
  %14 = alloca ptr, align 8
  %15 = alloca i32, align 4
  store ptr %0, ptr %5, align 8, !tbaa !31
  store ptr %1, ptr %6, align 8, !tbaa !3
  store ptr %2, ptr %7, align 8, !tbaa !33
  call void @llvm.lifetime.start.p0(i64 4, ptr %8) #7
  store i32 0, ptr %8, align 4, !tbaa !16
  call void @llvm.lifetime.start.p0(i64 4, ptr %9) #7
  call void @llvm.lifetime.start.p0(i64 8, ptr %10) #7
  store ptr null, ptr %10, align 8, !tbaa !41
  call void @llvm.lifetime.start.p0(i64 8, ptr %11) #7
  %16 = load ptr, ptr %5, align 8, !tbaa !31
  %17 = load ptr, ptr %6, align 8, !tbaa !3
  %18 = call ptr @NCONF_get_string(ptr noundef %16, ptr noundef %17, ptr noundef @.str.15)
  store ptr %18, ptr %11, align 8, !tbaa !3
  %19 = load ptr, ptr %11, align 8, !tbaa !3
  %20 = icmp eq ptr %19, null
  br i1 %20, label %21, label %23

21:                                               ; preds = %3
  %22 = load ptr, ptr %6, align 8, !tbaa !3
  call void @ts_CONF_lookup_fail(ptr noundef %22, ptr noundef @.str.15)
  br label %81

23:                                               ; preds = %3
  %24 = load ptr, ptr %11, align 8, !tbaa !3
  %25 = call ptr @X509V3_parse_list(ptr noundef %24)
  store ptr %25, ptr %10, align 8, !tbaa !41
  %26 = icmp eq ptr %25, null
  br i1 %26, label %27, label %29

27:                                               ; preds = %23
  %28 = load ptr, ptr %6, align 8, !tbaa !3
  call void @ts_CONF_invalid(ptr noundef %28, ptr noundef @.str.15)
  br label %81

29:                                               ; preds = %23
  %30 = load ptr, ptr %10, align 8, !tbaa !41
  %31 = call ptr @ossl_check_const_CONF_VALUE_sk_type(ptr noundef %30)
  %32 = call i32 @OPENSSL_sk_num(ptr noundef %31)
  %33 = icmp eq i32 %32, 0
  br i1 %33, label %34, label %36

34:                                               ; preds = %29
  %35 = load ptr, ptr %6, align 8, !tbaa !3
  call void @ts_CONF_invalid(ptr noundef %35, ptr noundef @.str.15)
  br label %81

36:                                               ; preds = %29
  store i32 0, ptr %9, align 4, !tbaa !16
  br label %37

37:                                               ; preds = %77, %36
  %38 = load i32, ptr %9, align 4, !tbaa !16
  %39 = load ptr, ptr %10, align 8, !tbaa !41
  %40 = call ptr @ossl_check_const_CONF_VALUE_sk_type(ptr noundef %39)
  %41 = call i32 @OPENSSL_sk_num(ptr noundef %40)
  %42 = icmp slt i32 %38, %41
  br i1 %42, label %43, label %80

43:                                               ; preds = %37
  call void @llvm.lifetime.start.p0(i64 8, ptr %12) #7
  %44 = load ptr, ptr %10, align 8, !tbaa !41
  %45 = call ptr @ossl_check_const_CONF_VALUE_sk_type(ptr noundef %44)
  %46 = load i32, ptr %9, align 4, !tbaa !16
  %47 = call ptr @OPENSSL_sk_value(ptr noundef %45, i32 noundef %46)
  store ptr %47, ptr %12, align 8, !tbaa !28
  call void @llvm.lifetime.start.p0(i64 8, ptr %13) #7
  %48 = load ptr, ptr %12, align 8, !tbaa !28
  %49 = getelementptr inbounds nuw %struct.CONF_VALUE, ptr %48, i32 0, i32 2
  %50 = load ptr, ptr %49, align 8, !tbaa !43
  %51 = icmp ne ptr %50, null
  br i1 %51, label %52, label %56

52:                                               ; preds = %43
  %53 = load ptr, ptr %12, align 8, !tbaa !28
  %54 = getelementptr inbounds nuw %struct.CONF_VALUE, ptr %53, i32 0, i32 2
  %55 = load ptr, ptr %54, align 8, !tbaa !43
  br label %60

56:                                               ; preds = %43
  %57 = load ptr, ptr %12, align 8, !tbaa !28
  %58 = getelementptr inbounds nuw %struct.CONF_VALUE, ptr %57, i32 0, i32 1
  %59 = load ptr, ptr %58, align 8, !tbaa !45
  br label %60

60:                                               ; preds = %56, %52
  %61 = phi ptr [ %55, %52 ], [ %59, %56 ]
  store ptr %61, ptr %13, align 8, !tbaa !3
  call void @llvm.lifetime.start.p0(i64 8, ptr %14) #7
  %62 = load ptr, ptr %13, align 8, !tbaa !3
  %63 = call ptr @EVP_get_digestbyname(ptr noundef %62)
  store ptr %63, ptr %14, align 8, !tbaa !37
  %64 = icmp eq ptr %63, null
  br i1 %64, label %65, label %67

65:                                               ; preds = %60
  %66 = load ptr, ptr %6, align 8, !tbaa !3
  call void @ts_CONF_invalid(ptr noundef %66, ptr noundef @.str.15)
  store i32 2, ptr %15, align 4
  br label %74

67:                                               ; preds = %60
  %68 = load ptr, ptr %7, align 8, !tbaa !33
  %69 = load ptr, ptr %14, align 8, !tbaa !37
  %70 = call i32 @TS_RESP_CTX_add_md(ptr noundef %68, ptr noundef %69)
  %71 = icmp ne i32 %70, 0
  br i1 %71, label %73, label %72

72:                                               ; preds = %67
  store i32 2, ptr %15, align 4
  br label %74

73:                                               ; preds = %67
  store i32 0, ptr %15, align 4
  br label %74

74:                                               ; preds = %72, %65, %73
  call void @llvm.lifetime.end.p0(i64 8, ptr %14) #7
  call void @llvm.lifetime.end.p0(i64 8, ptr %13) #7
  call void @llvm.lifetime.end.p0(i64 8, ptr %12) #7
  %75 = load i32, ptr %15, align 4
  switch i32 %75, label %86 [
    i32 0, label %76
    i32 2, label %81
  ]

76:                                               ; preds = %74
  br label %77

77:                                               ; preds = %76
  %78 = load i32, ptr %9, align 4, !tbaa !16
  %79 = add nsw i32 %78, 1
  store i32 %79, ptr %9, align 4, !tbaa !16
  br label %37, !llvm.loop !47

80:                                               ; preds = %37
  store i32 1, ptr %8, align 4, !tbaa !16
  br label %81

81:                                               ; preds = %80, %74, %34, %27, %21
  %82 = load ptr, ptr %10, align 8, !tbaa !41
  %83 = call ptr @ossl_check_CONF_VALUE_sk_type(ptr noundef %82)
  %84 = call ptr @ossl_check_CONF_VALUE_freefunc_type(ptr noundef @X509V3_conf_free)
  call void @OPENSSL_sk_pop_free(ptr noundef %83, ptr noundef %84)
  %85 = load i32, ptr %8, align 4, !tbaa !16
  store i32 %85, ptr %4, align 4
  store i32 1, ptr %15, align 4
  br label %86

86:                                               ; preds = %81, %74
  call void @llvm.lifetime.end.p0(i64 8, ptr %11) #7
  call void @llvm.lifetime.end.p0(i64 8, ptr %10) #7
  call void @llvm.lifetime.end.p0(i64 4, ptr %9) #7
  call void @llvm.lifetime.end.p0(i64 4, ptr %8) #7
  %87 = load i32, ptr %4, align 4
  ret i32 %87
}