; Function Attrs: nounwind uwtable
define range(i32 0, 2) i32 @TS_CONF_set_digests(ptr noundef %0, ptr noundef %1, ptr noundef %2) local_unnamed_addr #0 {
  %4 = tail call ptr @NCONF_get_string(ptr noundef %0, ptr noundef %1, ptr noundef nonnull @.str.15) #4
  %5 = icmp eq ptr %4, null
  br i1 %5, label %6, label %7

6:                                                ; preds = %3
  tail call void @ERR_new() #4
  tail call void @ERR_set_debug(ptr noundef nonnull @.str.1, i32 noundef 127, ptr noundef nonnull @__func__.ts_CONF_lookup_fail) #4
  br label %.thread.sink.split

7:                                                ; preds = %3
  %8 = tail call ptr @X509V3_parse_list(ptr noundef nonnull %4) #4
  %9 = icmp eq ptr %8, null
  br i1 %9, label %10, label %11

10:                                               ; preds = %7
  tail call void @ERR_new() #4
  tail call void @ERR_set_debug(ptr noundef nonnull @.str.1, i32 noundef 132, ptr noundef nonnull @__func__.ts_CONF_invalid) #4
  br label %.thread.sink.split

11:                                               ; preds = %7
  %12 = tail call i32 @OPENSSL_sk_num(ptr noundef nonnull %8) #4
  %13 = icmp eq i32 %12, 0
  br i1 %13, label %16, label %.preheader

.preheader:                                       ; preds = %11
  %14 = tail call i32 @OPENSSL_sk_num(ptr noundef nonnull %8) #4
  %15 = icmp sgt i32 %14, 0
  br i1 %15, label %.lr.ph, label %.thread

16:                                               ; preds = %11
  tail call void @ERR_new() #4
  tail call void @ERR_set_debug(ptr noundef nonnull @.str.1, i32 noundef 132, ptr noundef nonnull @__func__.ts_CONF_invalid) #4
  br label %.thread.sink.split

17:                                               ; preds = %32
  %18 = add nuw nsw i32 %.02535, 1
  %19 = tail call i32 @OPENSSL_sk_num(ptr noundef nonnull %8) #4
  %20 = icmp slt i32 %18, %19
  br i1 %20, label %.lr.ph, label %.thread, !llvm.loop !21

.lr.ph:                                           ; preds = %.preheader, %17
  %.02535 = phi i32 [ %18, %17 ], [ 0, %.preheader ]
  %21 = tail call ptr @OPENSSL_sk_value(ptr noundef nonnull %8, i32 noundef %.02535) #4
  %22 = getelementptr inbounds nuw i8, ptr %21, i64 16
  %23 = load ptr, ptr %22, align 8, !tbaa !17
  %.not = icmp eq ptr %23, null
  br i1 %.not, label %24, label %27

24:                                               ; preds = %.lr.ph
  %25 = getelementptr inbounds nuw i8, ptr %21, i64 8
  %26 = load ptr, ptr %25, align 8, !tbaa !19
  br label %27

27:                                               ; preds = %.lr.ph, %24
  %28 = phi ptr [ %26, %24 ], [ %23, %.lr.ph ]
  %29 = tail call ptr @EVP_get_digestbyname(ptr noundef %28) #4
  %30 = icmp eq ptr %29, null
  br i1 %30, label %31, label %32

31:                                               ; preds = %27
  tail call void @ERR_new() #4
  tail call void @ERR_set_debug(ptr noundef nonnull @.str.1, i32 noundef 132, ptr noundef nonnull @__func__.ts_CONF_invalid) #4
  br label %.thread.sink.split

32:                                               ; preds = %27
  %33 = tail call i32 @TS_RESP_CTX_add_md(ptr noundef %2, ptr noundef nonnull %29) #4
  %.not31 = icmp eq i32 %33, 0
  br i1 %.not31, label %.thread, label %17

.thread.sink.split:                               ; preds = %6, %10, %16, %31
  %.sink = phi i32 [ 135, %31 ], [ 135, %16 ], [ 135, %10 ], [ 136, %6 ]
  %.026.ph = phi ptr [ %8, %31 ], [ %8, %16 ], [ null, %10 ], [ null, %6 ]
  tail call void (i32, i32, ptr, ...) @ERR_set_error(i32 noundef 47, i32 noundef %.sink, ptr noundef nonnull @.str.26, ptr noundef %1, ptr noundef nonnull @.str.15) #4
  br label %.thread

.thread:                                          ; preds = %17, %32, %.thread.sink.split, %.preheader
  %.026 = phi ptr [ %8, %.preheader ], [ %.026.ph, %.thread.sink.split ], [ %8, %32 ], [ %8, %17 ]
  %.024 = phi i32 [ 1, %.preheader ], [ 0, %.thread.sink.split ], [ 1, %17 ], [ 0, %32 ]
  tail call void @OPENSSL_sk_pop_free(ptr noundef %.026, ptr noundef nonnull @X509V3_conf_free) #4
  ret i32 %.024
}